target datalayout = "e-m:e-p270:32:32-p271:32:32-p272:64:64-i64:64-i128:128-f80:128-n8:16:32:64-S128"
target triple = "x86_64-pc-linux-gnu"

%"struct.OpenColorIO_v2_5dev::Chromaticities" = type { [2 x double] }
%"struct.OpenColorIO_v2_5dev::Primaries" = type { %"struct.OpenColorIO_v2_5dev::Chromaticities", %"struct.OpenColorIO_v2_5dev::Chromaticities", %"struct.OpenColorIO_v2_5dev::Chromaticities", %"struct.OpenColorIO_v2_5dev::Chromaticities" }
%"class.OpenColorIO_v2_5dev::MatrixOpData::Offsets" = type { [4 x double] }
%"class.std::shared_ptr" = type { %"class.std::__shared_ptr" }
%"class.std::__shared_ptr" = type { ptr, %"class.std::__shared_count" }
%"class.std::__shared_count" = type { ptr }

@_ZN19OpenColorIO_v2_5dev15CIE_XYZ_ILLUM_E9primariesE = hidden global %"struct.OpenColorIO_v2_5dev::Primaries" zeroinitializer, align 8
@_ZN19OpenColorIO_v2_5dev10WHITEPOINT7D65_XYZE = hidden global %"class.OpenColorIO_v2_5dev::MatrixOpData::Offsets" zeroinitializer, align 8
@_ZZN19OpenColorIO_v2_5dev34build_conversion_matrix_to_XYZ_D65ERKNS_9PrimariesENS_16AdaptationMethodEE4zero = internal global %"class.OpenColorIO_v2_5dev::MatrixOpData::Offsets" zeroinitializer, align 8
@_ZGVZN19OpenColorIO_v2_5dev34build_conversion_matrix_to_XYZ_D65ERKNS_9PrimariesENS_16AdaptationMethodEE4zero = internal global i64 0, align 8

; Function Attrs: mustprogress uwtable
define hidden void @_ZN19OpenColorIO_v2_5dev34build_conversion_matrix_to_XYZ_D65ERKNS_9PrimariesENS_16AdaptationMethodE(ptr dead_on_unwind noalias writable sret(%"class.std::shared_ptr") align 8 %0, ptr noundef nonnull align 8 dereferenceable(64) %1, i32 noundef %2) #6 personality ptr @__gxx_personality_v0 {
  %4 = alloca ptr, align 8
  %5 = alloca ptr, align 8
  %6 = alloca i32, align 4
  %7 = alloca ptr, align 8
  %8 = alloca i32, align 4
  store ptr %0, ptr %4, align 8
  store ptr %1, ptr %5, align 8, !tbaa !10
  store i32 %2, ptr %6, align 4, !tbaa !27
  %9 = load atomic i8, ptr @_ZGVZN19OpenColorIO_v2_5dev34build_conversion_matrix_to_XYZ_D65ERKNS_9PrimariesENS_16AdaptationMethodEE4zero acquire, align 8
  %10 = icmp eq i8 %9, 0
  br i1 %10, label %11, label %17, !prof !31

11:                                               ; preds = %3
  %12 = call i32 @__cxa_guard_acquire(ptr @_ZGVZN19OpenColorIO_v2_5dev34build_conversion_matrix_to_XYZ_D65ERKNS_9PrimariesENS_16AdaptationMethodEE4zero) #3
  %13 = icmp ne i32 %12, 0
  br i1 %13, label %14, label %17

14:                                               ; preds = %11
  invoke void @_ZN19OpenColorIO_v2_5dev12MatrixOpData7OffsetsC1Edddd(ptr noundef nonnull align 8 dereferenceable(32) @_ZZN19OpenColorIO_v2_5dev34build_conversion_matrix_to_XYZ_D65ERKNS_9PrimariesENS_16AdaptationMethodEE4zero, double noundef 0.000000e+00, double noundef 0.000000e+00, double noundef 0.000000e+00, double noundef 0.000000e+00)
          to label %15 unwind label %20

15:                                               ; preds = %14
  %16 = call ptr @llvm.invariant.start.p0(i64 32, ptr @_ZZN19OpenColorIO_v2_5dev34build_conversion_matrix_to_XYZ_D65ERKNS_9PrimariesENS_16AdaptationMethodEE4zero)
  call void @__cxa_guard_release(ptr @_ZGVZN19OpenColorIO_v2_5dev34build_conversion_matrix_to_XYZ_D65ERKNS_9PrimariesENS_16AdaptationMethodEE4zero) #3
  br label %17

17:                                               ; preds = %15, %11, %3
  %18 = load ptr, ptr %5, align 8, !tbaa !10
  %19 = load i32, ptr %6, align 4, !tbaa !27
  call void @_ZN19OpenColorIO_v2_5dev23build_conversion_matrixERKNS_9PrimariesES2_RKNS_12MatrixOpData7OffsetsES6_NS_16AdaptationMethodE(ptr dead_on_unwind writable sret(%"class.std::shared_ptr") align 8 %0, ptr noundef nonnull align 8 dereferenceable(64) %18, ptr noundef nonnull align 8 dereferenceable(64) @_ZN19OpenColorIO_v2_5dev15CIE_XYZ_ILLUM_E9primariesE, ptr noundef nonnull align 8 dereferenceable(32) @_ZZN19OpenColorIO_v2_5dev34build_conversion_matrix_to_XYZ_D65ERKNS_9PrimariesENS_16AdaptationMethodEE4zero, ptr noundef nonnull align 8 dereferenceable(32) @_ZN19OpenColorIO_v2_5dev10WHITEPOINT7D65_XYZE, i32 noundef %19)
  ret void

20:                                               ; preds = %14
  %21 = landingpad { ptr, i32 }
          cleanup
  %22 = extractvalue { ptr, i32 } %21, 0
  store ptr %22, ptr %7, align 8
  %23 = extractvalue { ptr, i32 } %21, 1
  store i32 %23, ptr %8, align 4
  call void @__cxa_guard_abort(ptr @_ZGVZN19OpenColorIO_v2_5dev34build_conversion_matrix_to_XYZ_D65ERKNS_9PrimariesENS_16AdaptationMethodEE4zero) #3
  br label %24

24:                                               ; preds = %20
  %25 = load ptr, ptr %7, align 8
  %26 = load i32, ptr %8, align 4
  %27 = insertvalue { ptr, i32 } poison, ptr %25, 0
  %28 = insertvalue { ptr, i32 } %27, i32 %26, 1
  resume { ptr, i32 } %28
}